target datalayout = "e-m:e-p270:32:32-p271:32:32-p272:64:64-i64:64-i128:128-f80:128-n8:16:32:64-S128"
target triple = "x86_64-pc-linux-gnu"

%class.XMMRegister = type { i32 }

@UseAVX = external global i32, align 4
@_ZL6xnoreg = internal constant %class.XMMRegister { i32 -1 }, align 4
@_ZN19Abstract_VM_Version9_featuresE = external global i64, align 8

; Function Attrs: mustprogress nounwind uwtable
define linkonce_odr hidden void @_Z26assert_different_registersI11XMMRegisterJS0_S0_EEvT_DpT0_(i32 %0, i32 %1, i32 %2) #1 comdat {
  %4 = alloca %class.XMMRegister, align 4
  %5 = alloca %class.XMMRegister, align 4
  %6 = alloca %class.XMMRegister, align 4
  %7 = getelementptr inbounds %class.XMMRegister, ptr %4, i32 0, i32 0
  store i32 %0, ptr %7, align 4
  %8 = getelementptr inbounds %class.XMMRegister, ptr %5, i32 0, i32 0
  store i32 %1, ptr %8, align 4
  %9 = getelementptr inbounds %class.XMMRegister, ptr %6, i32 0, i32 0
  store i32 %2, ptr %9, align 4
  ret void
}

; Function Attrs: mustprogress nounwind uwtable
define linkonce_odr hidden noundef zeroext i1 @_ZN10VM_Version17supports_avx512vlEv() #1 comdat align 2 {
  %1 = load i64, ptr @_ZN19Abstract_VM_Version9_featuresE, align 8
  %2 = and i64 %1, 8589934592
  %3 = icmp ne i64 %2, 0
  ret i1 %3
}

; Function Attrs: mustprogress nounwind uwtable
define hidden void @_ZN17C2_MacroAssembler8vpminmaxEi9BasicType11XMMRegisterS1_S1_i(ptr noundef nonnull align 8 dereferenceable(40) %0, i32 noundef %1, i8 noundef zeroext %2, i32 %3, i32 %4, i32 %5, i32 noundef %6) #1 align 2 {
  %8 = alloca %class.XMMRegister, align 4
  %9 = alloca %class.XMMRegister, align 4
  %10 = alloca %class.XMMRegister, align 4
  %11 = alloca ptr, align 8
  %12 = alloca i32, align 4
  %13 = alloca i8, align 1
  %14 = alloca i32, align 4
  %15 = alloca %class.XMMRegister, align 4
  %16 = alloca %class.XMMRegister, align 4
  %17 = alloca %class.XMMRegister, align 4
  %18 = alloca %class.XMMRegister, align 4
  %19 = alloca %class.XMMRegister, align 4
  %20 = alloca %class.XMMRegister, align 4
  %21 = alloca %class.XMMRegister, align 4
  %22 = alloca %class.XMMRegister, align 4
  %23 = alloca %class.XMMRegister, align 4
  %24 = alloca %class.XMMRegister, align 4
  %25 = alloca %class.XMMRegister, align 4
  %26 = alloca %class.XMMRegister, align 4
  %27 = alloca %class.XMMRegister, align 4
  %28 = alloca %class.XMMRegister, align 4
  %29 = alloca %class.XMMRegister, align 4
  %30 = alloca %class.XMMRegister, align 4
  %31 = alloca %class.XMMRegister, align 4
  %32 = alloca %class.XMMRegister, align 4
  %33 = alloca %class.XMMRegister, align 4
  %34 = alloca %class.XMMRegister, align 4
  %35 = alloca %class.XMMRegister, align 4
  %36 = alloca %class.XMMRegister, align 4
  %37 = alloca %class.XMMRegister, align 4
  %38 = alloca %class.XMMRegister, align 4
  %39 = alloca %class.XMMRegister, align 4
  %40 = alloca %class.XMMRegister, align 4
  %41 = alloca %class.XMMRegister, align 4
  %42 = alloca %class.XMMRegister, align 4
  %43 = alloca %class.XMMRegister, align 4
  %44 = alloca %class.XMMRegister, align 4
  %45 = alloca %class.XMMRegister, align 4
  %46 = alloca %class.XMMRegister, align 4
  %47 = alloca %class.XMMRegister, align 4
  %48 = alloca %class.XMMRegister, align 4
  %49 = alloca %class.XMMRegister, align 4
  %50 = alloca %class.XMMRegister, align 4
  %51 = alloca %class.XMMRegister, align 4
  %52 = alloca %class.XMMRegister, align 4
  %53 = alloca %class.XMMRegister, align 4
  %54 = alloca %class.XMMRegister, align 4
  %55 = alloca %class.XMMRegister, align 4
  %56 = alloca %class.XMMRegister, align 4
  %57 = alloca %class.XMMRegister, align 4
  %58 = alloca %class.XMMRegister, align 4
  %59 = alloca %class.XMMRegister, align 4
  %60 = alloca %class.XMMRegister, align 4
  %61 = getelementptr inbounds %class.XMMRegister, ptr %8, i32 0, i32 0
  store i32 %3, ptr %61, align 4
  %62 = getelementptr inbounds %class.XMMRegister, ptr %9, i32 0, i32 0
  store i32 %4, ptr %62, align 4
  %63 = getelementptr inbounds %class.XMMRegister, ptr %10, i32 0, i32 0
  store i32 %5, ptr %63, align 4
  store ptr %0, ptr %11, align 8
  store i32 %1, ptr %12, align 4
  store i8 %2, ptr %13, align 1
  store i32 %6, ptr %14, align 4
  %64 = load ptr, ptr %11, align 8
  %65 = load i32, ptr %12, align 4
  %66 = icmp eq i32 %65, 419
  br i1 %66, label %67, label %148

67:                                               ; preds = %7
  %68 = load i8, ptr %13, align 1
  %69 = zext i8 %68 to i32
  %70 = icmp eq i32 %69, 8
  br i1 %70, label %71, label %79

71:                                               ; preds = %67
  call void @llvm.memcpy.p0.p0.i64(ptr align 4 %15, ptr align 4 %8, i64 4, i1 false)
  call void @llvm.memcpy.p0.p0.i64(ptr align 4 %16, ptr align 4 %9, i64 4, i1 false)
  call void @llvm.memcpy.p0.p0.i64(ptr align 4 %17, ptr align 4 %10, i64 4, i1 false)
  %72 = load i32, ptr %14, align 4
  %73 = getelementptr inbounds %class.XMMRegister, ptr %15, i32 0, i32 0
  %74 = load i32, ptr %73, align 4
  %75 = getelementptr inbounds %class.XMMRegister, ptr %16, i32 0, i32 0
  %76 = load i32, ptr %75, align 4
  %77 = getelementptr inbounds %class.XMMRegister, ptr %17, i32 0, i32 0
  %78 = load i32, ptr %77, align 4
  call void @_ZN9Assembler7vpminsbE11XMMRegisterS0_S0_i(ptr noundef nonnull align 8 dereferenceable(40) %64, i32 %74, i32 %76, i32 %78, i32 noundef %72)
  br label %147

79:                                               ; preds = %67
  %80 = load i8, ptr %13, align 1
  %81 = zext i8 %80 to i32
  %82 = icmp eq i32 %81, 9
  br i1 %82, label %83, label %91

83:                                               ; preds = %79
  call void @llvm.memcpy.p0.p0.i64(ptr align 4 %18, ptr align 4 %8, i64 4, i1 false)
  call void @llvm.memcpy.p0.p0.i64(ptr align 4 %19, ptr align 4 %9, i64 4, i1 false)
  call void @llvm.memcpy.p0.p0.i64(ptr align 4 %20, ptr align 4 %10, i64 4, i1 false)
  %84 = load i32, ptr %14, align 4
  %85 = getelementptr inbounds %class.XMMRegister, ptr %18, i32 0, i32 0
  %86 = load i32, ptr %85, align 4
  %87 = getelementptr inbounds %class.XMMRegister, ptr %19, i32 0, i32 0
  %88 = load i32, ptr %87, align 4
  %89 = getelementptr inbounds %class.XMMRegister, ptr %20, i32 0, i32 0
  %90 = load i32, ptr %89, align 4
  call void @_ZN9Assembler7vpminswE11XMMRegisterS0_S0_i(ptr noundef nonnull align 8 dereferenceable(40) %64, i32 %86, i32 %88, i32 %90, i32 noundef %84)
  br label %146

91:                                               ; preds = %79
  %92 = load i8, ptr %13, align 1
  %93 = zext i8 %92 to i32
  %94 = icmp eq i32 %93, 10
  br i1 %94, label %95, label %103

95:                                               ; preds = %91
  call void @llvm.memcpy.p0.p0.i64(ptr align 4 %21, ptr align 4 %8, i64 4, i1 false)
  call void @llvm.memcpy.p0.p0.i64(ptr align 4 %22, ptr align 4 %9, i64 4, i1 false)
  call void @llvm.memcpy.p0.p0.i64(ptr align 4 %23, ptr align 4 %10, i64 4, i1 false)
  %96 = load i32, ptr %14, align 4
  %97 = getelementptr inbounds %class.XMMRegister, ptr %21, i32 0, i32 0
  %98 = load i32, ptr %97, align 4
  %99 = getelementptr inbounds %class.XMMRegister, ptr %22, i32 0, i32 0
  %100 = load i32, ptr %99, align 4
  %101 = getelementptr inbounds %class.XMMRegister, ptr %23, i32 0, i32 0
  %102 = load i32, ptr %101, align 4
  call void @_ZN9Assembler7vpminsdE11XMMRegisterS0_S0_i(ptr noundef nonnull align 8 dereferenceable(40) %64, i32 %98, i32 %100, i32 %102, i32 noundef %96)
  br label %145

103:                                              ; preds = %91
  %104 = load i32, ptr @UseAVX, align 4
  %105 = icmp sgt i32 %104, 2
  br i1 %105, label %106, label %119

106:                                              ; preds = %103
  %107 = load i32, ptr %14, align 4
  %108 = icmp eq i32 %107, 2
  br i1 %108, label %111, label %109

109:                                              ; preds = %106
  %110 = call noundef zeroext i1 @_ZN10VM_Version17supports_avx512vlEv()
  br i1 %110, label %111, label %119

111:                                              ; preds = %109, %106
  call void @llvm.memcpy.p0.p0.i64(ptr align 4 %24, ptr align 4 %8, i64 4, i1 false)
  call void @llvm.memcpy.p0.p0.i64(ptr align 4 %25, ptr align 4 %9, i64 4, i1 false)
  call void @llvm.memcpy.p0.p0.i64(ptr align 4 %26, ptr align 4 %10, i64 4, i1 false)
  %112 = load i32, ptr %14, align 4
  %113 = getelementptr inbounds %class.XMMRegister, ptr %24, i32 0, i32 0
  %114 = load i32, ptr %113, align 4
  %115 = getelementptr inbounds %class.XMMRegister, ptr %25, i32 0, i32 0
  %116 = load i32, ptr %115, align 4
  %117 = getelementptr inbounds %class.XMMRegister, ptr %26, i32 0, i32 0
  %118 = load i32, ptr %117, align 4
  call void @_ZN9Assembler7vpminsqE11XMMRegisterS0_S0_i(ptr noundef nonnull align 8 dereferenceable(40) %64, i32 %114, i32 %116, i32 %118, i32 noundef %112)
  br label %144

119:                                              ; preds = %109, %103
  call void @llvm.memcpy.p0.p0.i64(ptr align 4 %27, ptr align 4 %8, i64 4, i1 false)
  call void @llvm.memcpy.p0.p0.i64(ptr align 4 %28, ptr align 4 %9, i64 4, i1 false)
  call void @llvm.memcpy.p0.p0.i64(ptr align 4 %29, ptr align 4 %10, i64 4, i1 false)
  %120 = getelementptr inbounds %class.XMMRegister, ptr %27, i32 0, i32 0
  %121 = load i32, ptr %120, align 4
  %122 = getelementptr inbounds %class.XMMRegister, ptr %28, i32 0, i32 0
  %123 = load i32, ptr %122, align 4
  %124 = getelementptr inbounds %class.XMMRegister, ptr %29, i32 0, i32 0
  %125 = load i32, ptr %124, align 4
  call void @_Z26assert_different_registersI11XMMRegisterJS0_S0_EEvT_DpT0_(i32 %121, i32 %123, i32 %125)
  call void @llvm.memcpy.p0.p0.i64(ptr align 4 %30, ptr align 4 %8, i64 4, i1 false)
  call void @llvm.memcpy.p0.p0.i64(ptr align 4 %31, ptr align 4 %9, i64 4, i1 false)
  call void @llvm.memcpy.p0.p0.i64(ptr align 4 %32, ptr align 4 %10, i64 4, i1 false)
  %126 = load i32, ptr %14, align 4
  %127 = getelementptr inbounds %class.XMMRegister, ptr %30, i32 0, i32 0
  %128 = load i32, ptr %127, align 4
  %129 = getelementptr inbounds %class.XMMRegister, ptr %31, i32 0, i32 0
  %130 = load i32, ptr %129, align 4
  %131 = getelementptr inbounds %class.XMMRegister, ptr %32, i32 0, i32 0
  %132 = load i32, ptr %131, align 4
  call void @_ZN9Assembler8vpcmpgtqE11XMMRegisterS0_S0_i(ptr noundef nonnull align 8 dereferenceable(40) %64, i32 %128, i32 %130, i32 %132, i32 noundef %126)
  call void @llvm.memcpy.p0.p0.i64(ptr align 4 %33, ptr align 4 %8, i64 4, i1 false)
  call void @llvm.memcpy.p0.p0.i64(ptr align 4 %34, ptr align 4 %9, i64 4, i1 false)
  call void @llvm.memcpy.p0.p0.i64(ptr align 4 %35, ptr align 4 %10, i64 4, i1 false)
  call void @llvm.memcpy.p0.p0.i64(ptr align 4 %36, ptr align 4 %8, i64 4, i1 false)
  %133 = load i32, ptr %14, align 4
  call void @llvm.memcpy.p0.p0.i64(ptr align 4 %37, ptr align 4 @_ZL6xnoreg, i64 4, i1 false)
  %134 = getelementptr inbounds %class.XMMRegister, ptr %33, i32 0, i32 0
  %135 = load i32, ptr %134, align 4
  %136 = getelementptr inbounds %class.XMMRegister, ptr %34, i32 0, i32 0
  %137 = load i32, ptr %136, align 4
  %138 = getelementptr inbounds %class.XMMRegister, ptr %35, i32 0, i32 0
  %139 = load i32, ptr %138, align 4
  %140 = getelementptr inbounds %class.XMMRegister, ptr %36, i32 0, i32 0
  %141 = load i32, ptr %140, align 4
  %142 = getelementptr inbounds %class.XMMRegister, ptr %37, i32 0, i32 0
  %143 = load i32, ptr %142, align 4
  call void @_ZN14MacroAssembler9vblendvpdE11XMMRegisterS0_S0_S0_ibS0_(ptr noundef nonnull align 8 dereferenceable(40) %64, i32 %135, i32 %137, i32 %139, i32 %141, i32 noundef %133, i1 noundef zeroext true, i32 %143)
  br label %144

144:                                              ; preds = %119, %111
  br label %145

145:                                              ; preds = %144, %95
  br label %146

146:                                              ; preds = %145, %83
  br label %147

147:                                              ; preds = %146, %71
  br label %229

148:                                              ; preds = %7
  %149 = load i8, ptr %13, align 1
  %150 = zext i8 %149 to i32
  %151 = icmp eq i32 %150, 8
  br i1 %151, label %152, label %160

152:                                              ; preds = %148
  call void @llvm.memcpy.p0.p0.i64(ptr align 4 %38, ptr align 4 %8, i64 4, i1 false)
  call void @llvm.memcpy.p0.p0.i64(ptr align 4 %39, ptr align 4 %9, i64 4, i1 false)
  call void @llvm.memcpy.p0.p0.i64(ptr align 4 %40, ptr align 4 %10, i64 4, i1 false)
  %153 = load i32, ptr %14, align 4
  %154 = getelementptr inbounds %class.XMMRegister, ptr %38, i32 0, i32 0
  %155 = load i32, ptr %154, align 4
  %156 = getelementptr inbounds %class.XMMRegister, ptr %39, i32 0, i32 0
  %157 = load i32, ptr %156, align 4
  %158 = getelementptr inbounds %class.XMMRegister, ptr %40, i32 0, i32 0
  %159 = load i32, ptr %158, align 4
  call void @_ZN9Assembler7vpmaxsbE11XMMRegisterS0_S0_i(ptr noundef nonnull align 8 dereferenceable(40) %64, i32 %155, i32 %157, i32 %159, i32 noundef %153)
  br label %228

160:                                              ; preds = %148
  %161 = load i8, ptr %13, align 1
  %162 = zext i8 %161 to i32
  %163 = icmp eq i32 %162, 9
  br i1 %163, label %164, label %172

164:                                              ; preds = %160
  call void @llvm.memcpy.p0.p0.i64(ptr align 4 %41, ptr align 4 %8, i64 4, i1 false)
  call void @llvm.memcpy.p0.p0.i64(ptr align 4 %42, ptr align 4 %9, i64 4, i1 false)
  call void @llvm.memcpy.p0.p0.i64(ptr align 4 %43, ptr align 4 %10, i64 4, i1 false)
  %165 = load i32, ptr %14, align 4
  %166 = getelementptr inbounds %class.XMMRegister, ptr %41, i32 0, i32 0
  %167 = load i32, ptr %166, align 4
  %168 = getelementptr inbounds %class.XMMRegister, ptr %42, i32 0, i32 0
  %169 = load i32, ptr %168, align 4
  %170 = getelementptr inbounds %class.XMMRegister, ptr %43, i32 0, i32 0
  %171 = load i32, ptr %170, align 4
  call void @_ZN9Assembler7vpmaxswE11XMMRegisterS0_S0_i(ptr noundef nonnull align 8 dereferenceable(40) %64, i32 %167, i32 %169, i32 %171, i32 noundef %165)
  br label %227

172:                                              ; preds = %160
  %173 = load i8, ptr %13, align 1
  %174 = zext i8 %173 to i32
  %175 = icmp eq i32 %174, 10
  br i1 %175, label %176, label %184

176:                                              ; preds = %172
  call void @llvm.memcpy.p0.p0.i64(ptr align 4 %44, ptr align 4 %8, i64 4, i1 false)
  call void @llvm.memcpy.p0.p0.i64(ptr align 4 %45, ptr align 4 %9, i64 4, i1 false)
  call void @llvm.memcpy.p0.p0.i64(ptr align 4 %46, ptr align 4 %10, i64 4, i1 false)
  %177 = load i32, ptr %14, align 4
  %178 = getelementptr inbounds %class.XMMRegister, ptr %44, i32 0, i32 0
  %179 = load i32, ptr %178, align 4
  %180 = getelementptr inbounds %class.XMMRegister, ptr %45, i32 0, i32 0
  %181 = load i32, ptr %180, align 4
  %182 = getelementptr inbounds %class.XMMRegister, ptr %46, i32 0, i32 0
  %183 = load i32, ptr %182, align 4
  call void @_ZN9Assembler7vpmaxsdE11XMMRegisterS0_S0_i(ptr noundef nonnull align 8 dereferenceable(40) %64, i32 %179, i32 %181, i32 %183, i32 noundef %177)
  br label %226

184:                                              ; preds = %172
  %185 = load i32, ptr @UseAVX, align 4
  %186 = icmp sgt i32 %185, 2
  br i1 %186, label %187, label %200

187:                                              ; preds = %184
  %188 = load i32, ptr %14, align 4
  %189 = icmp eq i32 %188, 2
  br i1 %189, label %192, label %190

190:                                              ; preds = %187
  %191 = call noundef zeroext i1 @_ZN10VM_Version17supports_avx512vlEv()
  br i1 %191, label %192, label %200

192:                                              ; preds = %190, %187
  call void @llvm.memcpy.p0.p0.i64(ptr align 4 %47, ptr align 4 %8, i64 4, i1 false)
  call void @llvm.memcpy.p0.p0.i64(ptr align 4 %48, ptr align 4 %9, i64 4, i1 false)
  call void @llvm.memcpy.p0.p0.i64(ptr align 4 %49, ptr align 4 %10, i64 4, i1 false)
  %193 = load i32, ptr %14, align 4
  %194 = getelementptr inbounds %class.XMMRegister, ptr %47, i32 0, i32 0
  %195 = load i32, ptr %194, align 4
  %196 = getelementptr inbounds %class.XMMRegister, ptr %48, i32 0, i32 0
  %197 = load i32, ptr %196, align 4
  %198 = getelementptr inbounds %class.XMMRegister, ptr %49, i32 0, i32 0
  %199 = load i32, ptr %198, align 4
  call void @_ZN9Assembler7vpmaxsqE11XMMRegisterS0_S0_i(ptr noundef nonnull align 8 dereferenceable(40) %64, i32 %195, i32 %197, i32 %199, i32 noundef %193)
  br label %225

200:                                              ; preds = %190, %184
  call void @llvm.memcpy.p0.p0.i64(ptr align 4 %50, ptr align 4 %8, i64 4, i1 false)
  call void @llvm.memcpy.p0.p0.i64(ptr align 4 %51, ptr align 4 %9, i64 4, i1 false)
  call void @llvm.memcpy.p0.p0.i64(ptr align 4 %52, ptr align 4 %10, i64 4, i1 false)
  %201 = getelementptr inbounds %class.XMMRegister, ptr %50, i32 0, i32 0
  %202 = load i32, ptr %201, align 4
  %203 = getelementptr inbounds %class.XMMRegister, ptr %51, i32 0, i32 0
  %204 = load i32, ptr %203, align 4
  %205 = getelementptr inbounds %class.XMMRegister, ptr %52, i32 0, i32 0
  %206 = load i32, ptr %205, align 4
  call void @_Z26assert_different_registersI11XMMRegisterJS0_S0_EEvT_DpT0_(i32 %202, i32 %204, i32 %206)
  call void @llvm.memcpy.p0.p0.i64(ptr align 4 %53, ptr align 4 %8, i64 4, i1 false)
  call void @llvm.memcpy.p0.p0.i64(ptr align 4 %54, ptr align 4 %9, i64 4, i1 false)
  call void @llvm.memcpy.p0.p0.i64(ptr align 4 %55, ptr align 4 %10, i64 4, i1 false)
  %207 = load i32, ptr %14, align 4
  %208 = getelementptr inbounds %class.XMMRegister, ptr %53, i32 0, i32 0
  %209 = load i32, ptr %208, align 4
  %210 = getelementptr inbounds %class.XMMRegister, ptr %54, i32 0, i32 0
  %211 = load i32, ptr %210, align 4
  %212 = getelementptr inbounds %class.XMMRegister, ptr %55, i32 0, i32 0
  %213 = load i32, ptr %212, align 4
  call void @_ZN9Assembler8vpcmpgtqE11XMMRegisterS0_S0_i(ptr noundef nonnull align 8 dereferenceable(40) %64, i32 %209, i32 %211, i32 %213, i32 noundef %207)
  call void @llvm.memcpy.p0.p0.i64(ptr align 4 %56, ptr align 4 %8, i64 4, i1 false)
  call void @llvm.memcpy.p0.p0.i64(ptr align 4 %57, ptr align 4 %10, i64 4, i1 false)
  call void @llvm.memcpy.p0.p0.i64(ptr align 4 %58, ptr align 4 %9, i64 4, i1 false)
  call void @llvm.memcpy.p0.p0.i64(ptr align 4 %59, ptr align 4 %8, i64 4, i1 false)
  %214 = load i32, ptr %14, align 4
  call void @llvm.memcpy.p0.p0.i64(ptr align 4 %60, ptr align 4 @_ZL6xnoreg, i64 4, i1 false)
  %215 = getelementptr inbounds %class.XMMRegister, ptr %56, i32 0, i32 0
  %216 = load i32, ptr %215, align 4
  %217 = getelementptr inbounds %class.XMMRegister, ptr %57, i32 0, i32 0
  %218 = load i32, ptr %217, align 4
  %219 = getelementptr inbounds %class.XMMRegister, ptr %58, i32 0, i32 0
  %220 = load i32, ptr %219, align 4
  %221 = getelementptr inbounds %class.XMMRegister, ptr %59, i32 0, i32 0
  %222 = load i32, ptr %221, align 4
  %223 = getelementptr inbounds %class.XMMRegister, ptr %60, i32 0, i32 0
  %224 = load i32, ptr %223, align 4
  call void @_ZN14MacroAssembler9vblendvpdE11XMMRegisterS0_S0_S0_ibS0_(ptr noundef nonnull align 8 dereferenceable(40) %64, i32 %216, i32 %218, i32 %220, i32 %222, i32 noundef %214, i1 noundef zeroext true, i32 %224)
  br label %225

225:                                              ; preds = %200, %192
  br label %226

226:                                              ; preds = %225, %176
  br label %227

227:                                              ; preds = %226, %164
  br label %228

228:                                              ; preds = %227, %152
  br label %229

229:                                              ; preds = %228, %147
  ret void
}