; Function Attrs: mustprogress nounwind uwtable
define hidden void @_ZN17C2_MacroAssembler8vpminmaxEi9BasicType11XMMRegisterS1_S1_i(ptr noundef nonnull align 8 dereferenceable(40) %0, i32 noundef %1, i8 noundef zeroext %2, i32 %3, i32 %4, i32 %5, i32 noundef %6) local_unnamed_addr #0 align 2 {
  %8 = icmp eq i32 %1, 419
  br i1 %8, label %9, label %23

9:                                                ; preds = %7
  switch i8 %2, label %13 [
    i8 8, label %10
    i8 9, label %11
    i8 10, label %12
  ]

10:                                               ; preds = %9
  tail call void @_ZN9Assembler7vpminsbE11XMMRegisterS0_S0_i(ptr noundef nonnull align 8 dereferenceable(40) %0, i32 %3, i32 %4, i32 %5, i32 noundef %6) #11
  br label %37

11:                                               ; preds = %9
  tail call void @_ZN9Assembler7vpminswE11XMMRegisterS0_S0_i(ptr noundef nonnull align 8 dereferenceable(40) %0, i32 %3, i32 %4, i32 %5, i32 noundef %6) #11
  br label %37

12:                                               ; preds = %9
  tail call void @_ZN9Assembler7vpminsdE11XMMRegisterS0_S0_i(ptr noundef nonnull align 8 dereferenceable(40) %0, i32 %3, i32 %4, i32 %5, i32 noundef %6) #11
  br label %37

13:                                               ; preds = %9
  %14 = load i32, ptr @UseAVX, align 4
  %15 = icmp sgt i32 %14, 2
  br i1 %15, label %16, label %22

16:                                               ; preds = %13
  %17 = icmp eq i32 %6, 2
  br i1 %17, label %21, label %18

18:                                               ; preds = %16
  %19 = load i64, ptr @_ZN19Abstract_VM_Version9_featuresE, align 8
  %20 = and i64 %19, 8589934592
  %.not111 = icmp eq i64 %20, 0
  br i1 %.not111, label %22, label %21

21:                                               ; preds = %18, %16
  tail call void @_ZN9Assembler7vpminsqE11XMMRegisterS0_S0_i(ptr noundef nonnull align 8 dereferenceable(40) %0, i32 %3, i32 %4, i32 %5, i32 noundef %6) #11
  br label %37

22:                                               ; preds = %18, %13
  tail call void @_ZN9Assembler8vpcmpgtqE11XMMRegisterS0_S0_i(ptr noundef nonnull align 8 dereferenceable(40) %0, i32 %3, i32 %4, i32 %5, i32 noundef %6) #11
  tail call void @_ZN14MacroAssembler9vblendvpdE11XMMRegisterS0_S0_S0_ibS0_(ptr noundef nonnull align 8 dereferenceable(40) %0, i32 %3, i32 %4, i32 %5, i32 %3, i32 noundef %6, i1 noundef zeroext true, i32 -1) #11
  br label %37

23:                                               ; preds = %7
  switch i8 %2, label %27 [
    i8 8, label %24
    i8 9, label %25
    i8 10, label %26
  ]

24:                                               ; preds = %23
  tail call void @_ZN9Assembler7vpmaxsbE11XMMRegisterS0_S0_i(ptr noundef nonnull align 8 dereferenceable(40) %0, i32 %3, i32 %4, i32 %5, i32 noundef %6) #11
  br label %37

25:                                               ; preds = %23
  tail call void @_ZN9Assembler7vpmaxswE11XMMRegisterS0_S0_i(ptr noundef nonnull align 8 dereferenceable(40) %0, i32 %3, i32 %4, i32 %5, i32 noundef %6) #11
  br label %37

26:                                               ; preds = %23
  tail call void @_ZN9Assembler7vpmaxsdE11XMMRegisterS0_S0_i(ptr noundef nonnull align 8 dereferenceable(40) %0, i32 %3, i32 %4, i32 %5, i32 noundef %6) #11
  br label %37

27:                                               ; preds = %23
  %28 = load i32, ptr @UseAVX, align 4
  %29 = icmp sgt i32 %28, 2
  br i1 %29, label %30, label %36

30:                                               ; preds = %27
  %31 = icmp eq i32 %6, 2
  br i1 %31, label %35, label %32

32:                                               ; preds = %30
  %33 = load i64, ptr @_ZN19Abstract_VM_Version9_featuresE, align 8
  %34 = and i64 %33, 8589934592
  %.not = icmp eq i64 %34, 0
  br i1 %.not, label %36, label %35

35:                                               ; preds = %32, %30
  tail call void @_ZN9Assembler7vpmaxsqE11XMMRegisterS0_S0_i(ptr noundef nonnull align 8 dereferenceable(40) %0, i32 %3, i32 %4, i32 %5, i32 noundef %6) #11
  br label %37

36:                                               ; preds = %32, %27
  tail call void @_ZN9Assembler8vpcmpgtqE11XMMRegisterS0_S0_i(ptr noundef nonnull align 8 dereferenceable(40) %0, i32 %3, i32 %4, i32 %5, i32 noundef %6) #11
  tail call void @_ZN14MacroAssembler9vblendvpdE11XMMRegisterS0_S0_S0_ibS0_(ptr noundef nonnull align 8 dereferenceable(40) %0, i32 %3, i32 %5, i32 %4, i32 %3, i32 noundef %6, i1 noundef zeroext true, i32 -1) #11
  br label %37

37:                                               ; preds = %24, %26, %36, %35, %25, %10, %12, %22, %21, %11
  ret void
}